target datalayout = "e-m:e-p270:32:32-p271:32:32-p272:64:64-i64:64-i128:128-f80:128-n8:16:32:64-S128"
target triple = "x86_64-pc-linux-gnu"

@.str = private unnamed_addr constant [1 x i8] zeroinitializer, align 1
@.str.22 = private unnamed_addr constant [3 x i8] c"%u\00", align 1
@.str.30 = private unnamed_addr constant [2 x i8] c")\00", align 1
@hf_bgp_flowspec_nlri_op_flags = internal global i32 0, align 4
@hf_bgp_flowspec_nlri_dec_val_8 = internal global i32 0, align 4
@hf_bgp_flowspec_nlri_dec_val_16 = internal global i32 0, align 4
@hf_bgp_flowspec_nlri_dec_val_32 = internal global i32 0, align 4
@hf_bgp_flowspec_nlri_dec_val_64 = internal global i32 0, align 4
@ett_bgp_flow_spec_nlri_op_flags = internal global i32 0, align 4
@.str.1857 = private unnamed_addr constant [3 x i8] c" (\00", align 1
@.str.1858 = private unnamed_addr constant [9 x i8] c"%s%s%s%s\00", align 1
@.str.1859 = private unnamed_addr constant [4 x i8] c"&& \00", align 1
@.str.1860 = private unnamed_addr constant [2 x i8] c">\00", align 1
@.str.1861 = private unnamed_addr constant [2 x i8] c"<\00", align 1
@.str.1862 = private unnamed_addr constant [2 x i8] c"=\00", align 1
@.str.1863 = private unnamed_addr constant [10 x i8] c" %s%s%s%s\00", align 1
@.str.1864 = private unnamed_addr constant [4 x i8] c"|| \00", align 1

; Function Attrs: null_pointer_is_valid sspstrong uwtable
define internal void @decode_bgp_flow_spec_dec_operator(ptr noundef %0, ptr noundef %1, i32 noundef %2) #0 {
  %4 = alloca ptr, align 8
  %5 = alloca ptr, align 8
  %6 = alloca i32, align 4
  store ptr %0, ptr %4, align 8
  store ptr %1, ptr %5, align 8
  store i32 %2, ptr %6, align 4
  %7 = load ptr, ptr %4, align 8
  %8 = load ptr, ptr %5, align 8
  %9 = load i32, ptr %6, align 4
  %10 = load i32, ptr @hf_bgp_flowspec_nlri_op_flags, align 4
  %11 = load i32, ptr @ett_bgp_flow_spec_nlri_op_flags, align 4
  %12 = call ptr @proto_tree_add_bitmask(ptr noundef %7, ptr noundef %8, i32 noundef %9, i32 noundef %10, i32 noundef %11, ptr noundef @decode_bgp_flow_spec_dec_operator.flags, i32 noundef 0)
  ret void
}

; Function Attrs: null_pointer_is_valid sspstrong uwtable
define internal i32 @decode_bgp_nlri_op_dec_value(ptr noundef %0, ptr noundef %1, ptr noundef %2, i32 noundef %3) #0 {
  %5 = alloca i32, align 4
  %6 = alloca ptr, align 8
  %7 = alloca ptr, align 8
  %8 = alloca ptr, align 8
  %9 = alloca i32, align 4
  %10 = alloca i8, align 1
  %11 = alloca i32, align 4
  %12 = alloca i8, align 1
  %13 = alloca i32, align 4
  %14 = alloca i8, align 1
  %15 = alloca i32, align 4
  %16 = alloca i32, align 4
  store ptr %0, ptr %6, align 8
  store ptr %1, ptr %7, align 8
  store ptr %2, ptr %8, align 8
  store i32 %3, ptr %9, align 4
  call void @llvm.lifetime.start.p0(i64 1, ptr %10) #6
  call void @llvm.lifetime.start.p0(i64 4, ptr %11) #6
  store i32 0, ptr %11, align 4
  call void @llvm.lifetime.start.p0(i64 1, ptr %12) #6
  store i8 0, ptr %12, align 1
  call void @llvm.lifetime.start.p0(i64 4, ptr %13) #6
  store i32 0, ptr %13, align 4
  call void @llvm.lifetime.start.p0(i64 1, ptr %14) #6
  store i8 0, ptr %14, align 1
  call void @llvm.lifetime.start.p0(i64 4, ptr %15) #6
  store i32 0, ptr %15, align 4
  %17 = load ptr, ptr %7, align 8
  call void (ptr, ptr, ...) @proto_item_append_text(ptr noundef %17, ptr noundef @.str.1857)
  br label %18

18:                                               ; preds = %149, %4
  %19 = load ptr, ptr %8, align 8
  %20 = load i32, ptr %9, align 4
  %21 = load i32, ptr %11, align 4
  %22 = add i32 %20, %21
  %23 = call zeroext i8 @tvb_get_uint8(ptr noundef %19, i32 noundef %22)
  store i8 %23, ptr %10, align 1
  %24 = load i8, ptr %10, align 1
  %25 = zext i8 %24 to i32
  %26 = and i32 %25, 48
  %27 = trunc i32 %26 to i8
  store i8 %27, ptr %14, align 1
  %28 = load i8, ptr %14, align 1
  %29 = zext i8 %28 to i32
  %30 = ashr i32 %29, 4
  %31 = trunc i32 %30 to i8
  store i8 %31, ptr %14, align 1
  %32 = load i8, ptr %14, align 1
  %33 = zext i8 %32 to i32
  %34 = shl i32 1, %33
  %35 = trunc i32 %34 to i8
  store i8 %35, ptr %12, align 1
  %36 = load ptr, ptr %6, align 8
  %37 = load ptr, ptr %8, align 8
  %38 = load i32, ptr %9, align 4
  %39 = load i32, ptr %11, align 4
  %40 = add i32 %38, %39
  call void @decode_bgp_flow_spec_dec_operator(ptr noundef %36, ptr noundef %37, i32 noundef %40)
  %41 = load i32, ptr %15, align 4
  %42 = icmp eq i32 %41, 0
  br i1 %42, label %43, label %65

43:                                               ; preds = %18
  %44 = load ptr, ptr %7, align 8
  %45 = load i8, ptr %10, align 1
  %46 = zext i8 %45 to i32
  %47 = and i32 %46, 64
  %48 = icmp eq i32 %47, 0
  %49 = select i1 %48, ptr @.str, ptr @.str.1859
  %50 = load i8, ptr %10, align 1
  %51 = zext i8 %50 to i32
  %52 = and i32 %51, 2
  %53 = icmp eq i32 %52, 0
  %54 = select i1 %53, ptr @.str, ptr @.str.1860
  %55 = load i8, ptr %10, align 1
  %56 = zext i8 %55 to i32
  %57 = and i32 %56, 4
  %58 = icmp eq i32 %57, 0
  %59 = select i1 %58, ptr @.str, ptr @.str.1861
  %60 = load i8, ptr %10, align 1
  %61 = zext i8 %60 to i32
  %62 = and i32 %61, 1
  %63 = icmp eq i32 %62, 0
  %64 = select i1 %63, ptr @.str, ptr @.str.1862
  call void (ptr, ptr, ...) @proto_item_append_text(ptr noundef %44, ptr noundef @.str.1858, ptr noundef %49, ptr noundef %54, ptr noundef %59, ptr noundef %64)
  store i32 1, ptr %15, align 4
  br label %87

65:                                               ; preds = %18
  %66 = load ptr, ptr %7, align 8
  %67 = load i8, ptr %10, align 1
  %68 = zext i8 %67 to i32
  %69 = and i32 %68, 64
  %70 = icmp eq i32 %69, 0
  %71 = select i1 %70, ptr @.str.1864, ptr @.str.1859
  %72 = load i8, ptr %10, align 1
  %73 = zext i8 %72 to i32
  %74 = and i32 %73, 2
  %75 = icmp eq i32 %74, 0
  %76 = select i1 %75, ptr @.str, ptr @.str.1860
  %77 = load i8, ptr %10, align 1
  %78 = zext i8 %77 to i32
  %79 = and i32 %78, 4
  %80 = icmp eq i32 %79, 0
  %81 = select i1 %80, ptr @.str, ptr @.str.1861
  %82 = load i8, ptr %10, align 1
  %83 = zext i8 %82 to i32
  %84 = and i32 %83, 1
  %85 = icmp eq i32 %84, 0
  %86 = select i1 %85, ptr @.str, ptr @.str.1862
  call void (ptr, ptr, ...) @proto_item_append_text(ptr noundef %66, ptr noundef @.str.1863, ptr noundef %71, ptr noundef %76, ptr noundef %81, ptr noundef %86)
  br label %87

87:                                               ; preds = %65, %43
  %88 = load i32, ptr %11, align 4
  %89 = add i32 %88, 1
  store i32 %89, ptr %11, align 4
  %90 = load i8, ptr %12, align 1
  %91 = zext i8 %90 to i32
  switch i32 %91, label %141 [
    i32 1, label %92
    i32 2, label %106
    i32 3, label %120
    i32 4, label %133
  ]

92:                                               ; preds = %87
  %93 = load ptr, ptr %6, align 8
  %94 = load i32, ptr @hf_bgp_flowspec_nlri_dec_val_8, align 4
  %95 = load ptr, ptr %8, align 8
  %96 = load i32, ptr %9, align 4
  %97 = load i32, ptr %11, align 4
  %98 = add i32 %96, %97
  %99 = call ptr @proto_tree_add_item(ptr noundef %93, i32 noundef %94, ptr noundef %95, i32 noundef %98, i32 noundef 1, i32 noundef 0)
  %100 = load ptr, ptr %8, align 8
  %101 = load i32, ptr %9, align 4
  %102 = load i32, ptr %11, align 4
  %103 = add i32 %101, %102
  %104 = call zeroext i8 @tvb_get_uint8(ptr noundef %100, i32 noundef %103)
  %105 = zext i8 %104 to i32
  store i32 %105, ptr %13, align 4
  br label %142

106:                                              ; preds = %87
  %107 = load ptr, ptr %6, align 8
  %108 = load i32, ptr @hf_bgp_flowspec_nlri_dec_val_16, align 4
  %109 = load ptr, ptr %8, align 8
  %110 = load i32, ptr %9, align 4
  %111 = load i32, ptr %11, align 4
  %112 = add i32 %110, %111
  %113 = call ptr @proto_tree_add_item(ptr noundef %107, i32 noundef %108, ptr noundef %109, i32 noundef %112, i32 noundef 2, i32 noundef 0)
  %114 = load ptr, ptr %8, align 8
  %115 = load i32, ptr %9, align 4
  %116 = load i32, ptr %11, align 4
  %117 = add i32 %115, %116
  %118 = call zeroext i16 @tvb_get_ntohs(ptr noundef %114, i32 noundef %117)
  %119 = zext i16 %118 to i32
  store i32 %119, ptr %13, align 4
  br label %142

120:                                              ; preds = %87
  %121 = load ptr, ptr %6, align 8
  %122 = load i32, ptr @hf_bgp_flowspec_nlri_dec_val_32, align 4
  %123 = load ptr, ptr %8, align 8
  %124 = load i32, ptr %9, align 4
  %125 = load i32, ptr %11, align 4
  %126 = add i32 %124, %125
  %127 = call ptr @proto_tree_add_item(ptr noundef %121, i32 noundef %122, ptr noundef %123, i32 noundef %126, i32 noundef 4, i32 noundef 0)
  %128 = load ptr, ptr %8, align 8
  %129 = load i32, ptr %9, align 4
  %130 = load i32, ptr %11, align 4
  %131 = add i32 %129, %130
  %132 = call i32 @tvb_get_ntohl(ptr noundef %128, i32 noundef %131)
  store i32 %132, ptr %13, align 4
  br label %142

133:                                              ; preds = %87
  %134 = load ptr, ptr %6, align 8
  %135 = load i32, ptr @hf_bgp_flowspec_nlri_dec_val_64, align 4
  %136 = load ptr, ptr %8, align 8
  %137 = load i32, ptr %9, align 4
  %138 = load i32, ptr %11, align 4
  %139 = add i32 %137, %138
  %140 = call ptr @proto_tree_add_item(ptr noundef %134, i32 noundef %135, ptr noundef %136, i32 noundef %139, i32 noundef 8, i32 noundef 0)
  br label %142

141:                                              ; preds = %87
  store i32 -1, ptr %5, align 4
  store i32 1, ptr %16, align 4
  br label %157

142:                                              ; preds = %133, %120, %106, %92
  %143 = load i32, ptr %11, align 4
  %144 = load i8, ptr %12, align 1
  %145 = zext i8 %144 to i32
  %146 = add i32 %143, %145
  store i32 %146, ptr %11, align 4
  %147 = load ptr, ptr %7, align 8
  %148 = load i32, ptr %13, align 4
  call void (ptr, ptr, ...) @proto_item_append_text(ptr noundef %147, ptr noundef @.str.22, i32 noundef %148)
  br label %149

149:                                              ; preds = %142
  %150 = load i8, ptr %10, align 1
  %151 = zext i8 %150 to i32
  %152 = and i32 %151, 128
  %153 = icmp eq i32 %152, 0
  br i1 %153, label %18, label %154, !llvm.loop !61

154:                                              ; preds = %149
  %155 = load ptr, ptr %7, align 8
  call void (ptr, ptr, ...) @proto_item_append_text(ptr noundef %155, ptr noundef @.str.30)
  %156 = load i32, ptr %11, align 4
  store i32 %156, ptr %5, align 4
  store i32 1, ptr %16, align 4
  br label %157

157:                                              ; preds = %154, %141
  call void @llvm.lifetime.end.p0(i64 4, ptr %15) #6
  call void @llvm.lifetime.end.p0(i64 1, ptr %14) #6
  call void @llvm.lifetime.end.p0(i64 4, ptr %13) #6
  call void @llvm.lifetime.end.p0(i64 1, ptr %12) #6
  call void @llvm.lifetime.end.p0(i64 4, ptr %11) #6
  call void @llvm.lifetime.end.p0(i64 1, ptr %10) #6
  %158 = load i32, ptr %5, align 4
  ret i32 %158
}