; Function Attrs: null_pointer_is_valid sspstrong uwtable
define internal fastcc i32 @decode_bgp_nlri_op_dec_value(ptr noundef %0, ptr noundef %1, ptr noundef %2, i32 noundef %3) unnamed_addr #0 {
  tail call void (ptr, ptr, ...) @proto_item_append_text(ptr noundef %1, ptr noundef nonnull @.str.1857)
  br label %5

5:                                                ; preds = %51, %4
  %.058 = phi i32 [ 0, %4 ], [ %52, %51 ]
  %.056 = phi i32 [ 0, %4 ], [ %.157, %51 ]
  %6 = phi i1 [ true, %4 ], [ false, %51 ]
  %7 = add i32 %.058, %3
  %8 = tail call zeroext i8 @tvb_get_uint8(ptr noundef %2, i32 noundef %7)
  %9 = zext i8 %8 to i32
  %10 = lshr i8 %8, 4
  %11 = and i8 %10, 3
  %12 = shl nuw nsw i8 1, %11
  %13 = load i32, ptr @hf_bgp_flowspec_nlri_op_flags, align 4
  %14 = load i32, ptr @ett_bgp_flow_spec_nlri_op_flags, align 4
  %15 = tail call ptr @proto_tree_add_bitmask(ptr noundef %0, ptr noundef %2, i32 noundef %7, i32 noundef %13, i32 noundef %14, ptr noundef nonnull @decode_bgp_flow_spec_dec_operator.flags, i32 noundef 0)
  %16 = and i32 %9, 64
  %17 = icmp eq i32 %16, 0
  %18 = and i32 %9, 2
  %19 = icmp eq i32 %18, 0
  %20 = select i1 %19, ptr @.str, ptr @.str.1860
  %21 = and i32 %9, 4
  %22 = icmp eq i32 %21, 0
  %23 = select i1 %22, ptr @.str, ptr @.str.1861
  %24 = and i32 %9, 1
  %25 = icmp eq i32 %24, 0
  %26 = select i1 %25, ptr @.str, ptr @.str.1862
  %.str..str.1864 = select i1 %6, ptr @.str, ptr @.str.1864
  %.str.1858..str.1863 = select i1 %6, ptr @.str.1858, ptr @.str.1863
  %27 = select i1 %17, ptr %.str..str.1864, ptr @.str.1859
  tail call void (ptr, ptr, ...) @proto_item_append_text(ptr noundef %1, ptr noundef nonnull %.str.1858..str.1863, ptr noundef nonnull %27, ptr noundef nonnull %20, ptr noundef nonnull %23, ptr noundef nonnull %26)
  %28 = add i32 %.058, 1
  %29 = zext nneg i8 %12 to i32
  switch i8 %12, label %.loopexit [
    i8 1, label %30
    i8 2, label %36
    i8 3, label %42
    i8 4, label %47
  ]

30:                                               ; preds = %5
  %31 = load i32, ptr @hf_bgp_flowspec_nlri_dec_val_8, align 4
  %32 = add i32 %28, %3
  %33 = tail call ptr @proto_tree_add_item(ptr noundef %0, i32 noundef %31, ptr noundef %2, i32 noundef %32, i32 noundef 1, i32 noundef 0)
  %34 = tail call zeroext i8 @tvb_get_uint8(ptr noundef %2, i32 noundef %32)
  %35 = zext i8 %34 to i32
  br label %51

36:                                               ; preds = %5
  %37 = load i32, ptr @hf_bgp_flowspec_nlri_dec_val_16, align 4
  %38 = add i32 %28, %3
  %39 = tail call ptr @proto_tree_add_item(ptr noundef %0, i32 noundef %37, ptr noundef %2, i32 noundef %38, i32 noundef 2, i32 noundef 0)
  %40 = tail call zeroext i16 @tvb_get_ntohs(ptr noundef %2, i32 noundef %38)
  %41 = zext i16 %40 to i32
  br label %51

42:                                               ; preds = %5
  %43 = load i32, ptr @hf_bgp_flowspec_nlri_dec_val_32, align 4
  %44 = add i32 %28, %3
  %45 = tail call ptr @proto_tree_add_item(ptr noundef %0, i32 noundef %43, ptr noundef %2, i32 noundef %44, i32 noundef 4, i32 noundef 0)
  %46 = tail call i32 @tvb_get_ntohl(ptr noundef %2, i32 noundef %44)
  br label %51

47:                                               ; preds = %5
  %48 = load i32, ptr @hf_bgp_flowspec_nlri_dec_val_64, align 4
  %49 = add i32 %28, %3
  %50 = tail call ptr @proto_tree_add_item(ptr noundef %0, i32 noundef %48, ptr noundef %2, i32 noundef %49, i32 noundef 8, i32 noundef 0)
  br label %51

51:                                               ; preds = %47, %42, %36, %30
  %.157 = phi i32 [ %.056, %47 ], [ %46, %42 ], [ %41, %36 ], [ %35, %30 ]
  %52 = add i32 %28, %29
  tail call void (ptr, ptr, ...) @proto_item_append_text(ptr noundef %1, ptr noundef nonnull @.str.22, i32 noundef %.157)
  %53 = icmp sgt i8 %8, -1
  br i1 %53, label %5, label %54, !llvm.loop !76

54:                                               ; preds = %51
  tail call void (ptr, ptr, ...) @proto_item_append_text(ptr noundef %1, ptr noundef nonnull @.str.30)
  br label %.loopexit

.loopexit:                                        ; preds = %5, %54
  %.059 = phi i32 [ %52, %54 ], [ -1, %5 ]
  ret i32 %.059
}